target datalayout = "e-m:e-p270:32:32-p271:32:32-p272:64:64-i64:64-i128:128-f80:128-n8:16:32:64-S128"
target triple = "x86_64-pc-linux-gnu"

%struct._packet_info = type { ptr, ptr, i32, i32, %struct.nstime_t, %struct.nstime_t, %struct.nstime_t, i8, ptr, ptr, ptr, ptr, %struct._address, %struct._address, %struct._address, %struct._address, %struct._address, %struct._address, i32, ptr, i8, [3 x i8], %struct.anon, i32, i32, i32, i32, ptr, i8, ptr, ptr, i16, i16, i32, i32, i16, i32, i32, ptr, ptr, ptr, i8, i8, i16, i16, i16, i32, i16, i16, ptr, ptr, ptr, ptr, ptr, i32, i32 }
%struct.nstime_t = type { i64, i32 }
%struct._address = type { i32, i32, ptr, ptr }
%struct.anon = type { i8, [3 x i8] }

@.str.1170 = private unnamed_addr constant [7 x i8] c"%s: %s\00", align 1
@.str.1171 = private unnamed_addr constant [8 x i8] c", %s=%s\00", align 1

; Function Attrs: null_pointer_is_valid sspstrong uwtable
define internal i32 @add_item_value_stringz(ptr noundef %0, ptr noundef %1, ptr noundef %2, ptr noundef %3, i32 noundef %4, i32 noundef %5, ptr noundef %6, i32 noundef %7) #0 {
  %9 = alloca ptr, align 8
  %10 = alloca ptr, align 8
  %11 = alloca ptr, align 8
  %12 = alloca ptr, align 8
  %13 = alloca i32, align 4
  %14 = alloca i32, align 4
  %15 = alloca ptr, align 8
  %16 = alloca i32, align 4
  %17 = alloca i32, align 4
  %18 = alloca ptr, align 8
  store ptr %0, ptr %9, align 8
  store ptr %1, ptr %10, align 8
  store ptr %2, ptr %11, align 8
  store ptr %3, ptr %12, align 8
  store i32 %4, ptr %13, align 4
  store i32 %5, ptr %14, align 4
  store ptr %6, ptr %15, align 8
  store i32 %7, ptr %16, align 4
  call void @llvm.lifetime.start.p0(i64 4, ptr %17) #3
  %19 = load ptr, ptr %9, align 8
  %20 = load i32, ptr %14, align 4
  %21 = call i32 @tvb_strsize(ptr noundef %19, i32 noundef %20)
  store i32 %21, ptr %17, align 4
  call void @llvm.lifetime.start.p0(i64 8, ptr %18) #3
  %22 = load ptr, ptr %10, align 8
  %23 = getelementptr inbounds nuw %struct._packet_info, ptr %22, i32 0, i32 51
  %24 = load ptr, ptr %23, align 8
  %25 = load ptr, ptr %9, align 8
  %26 = load i32, ptr %14, align 4
  %27 = load i32, ptr %17, align 4
  %28 = sub i32 %27, 1
  %29 = call ptr @tvb_get_string_enc(ptr noundef %24, ptr noundef %25, i32 noundef %26, i32 noundef %28, i32 noundef 0)
  store ptr %29, ptr %18, align 8
  %30 = load ptr, ptr %12, align 8
  %31 = load i32, ptr %13, align 4
  %32 = load ptr, ptr %9, align 8
  %33 = load i32, ptr %14, align 4
  %34 = load i32, ptr %17, align 4
  %35 = load ptr, ptr %15, align 8
  %36 = load ptr, ptr %18, align 8
  %37 = call ptr (ptr, i32, ptr, i32, i32, ptr, ...) @proto_tree_add_none_format(ptr noundef %30, i32 noundef %31, ptr noundef %32, i32 noundef %33, i32 noundef %34, ptr noundef @.str.1170, ptr noundef %35, ptr noundef %36)
  %38 = load i32, ptr %16, align 4
  %39 = icmp ne i32 %38, 0
  br i1 %39, label %40, label %44

40:                                               ; preds = %8
  %41 = load ptr, ptr %11, align 8
  %42 = load ptr, ptr %15, align 8
  %43 = load ptr, ptr %18, align 8
  call void (ptr, ptr, ...) @proto_item_append_text(ptr noundef %41, ptr noundef @.str.1171, ptr noundef %42, ptr noundef %43)
  br label %44

44:                                               ; preds = %40, %8
  %45 = load i32, ptr %17, align 4
  call void @llvm.lifetime.end.p0(i64 8, ptr %18) #3
  call void @llvm.lifetime.end.p0(i64 4, ptr %17) #3
  ret i32 %45
}