; Function Attrs: null_pointer_is_valid sspstrong uwtable
define internal fastcc i32 @add_item_value_stringz(ptr noundef %0, ptr noundef readonly captures(none) %1, ptr noundef %2, ptr noundef %3, i32 noundef %4, i32 noundef %5, ptr noundef %6) unnamed_addr #0 {
  %8 = tail call i32 @tvb_strsize(ptr noundef %0, i32 noundef %5)
  %9 = getelementptr inbounds nuw i8, ptr %1, i64 408
  %10 = load ptr, ptr %9, align 8
  %11 = add i32 %8, -1
  %12 = tail call ptr @tvb_get_string_enc(ptr noundef %10, ptr noundef %0, i32 noundef %5, i32 noundef %11, i32 noundef 0)
  %13 = tail call ptr (ptr, i32, ptr, i32, i32, ptr, ...) @proto_tree_add_none_format(ptr noundef %3, i32 noundef %4, ptr noundef %0, i32 noundef %5, i32 noundef %8, ptr noundef nonnull @.str.1170, ptr noundef %6, ptr noundef %12)
  tail call void (ptr, ptr, ...) @proto_item_append_text(ptr noundef %2, ptr noundef nonnull @.str.1171, ptr noundef %6, ptr noundef %12)
  ret i32 %8
}